target datalayout = "e-m:e-p270:32:32-p271:32:32-p272:64:64-i64:64-i128:128-f80:128-n8:16:32:64-S128"
target triple = "x86_64-pc-linux-gnu"

@.str.1 = private unnamed_addr constant [26 x i8] c"Unknown module name: `%s'\00", align 1
@.str.3 = private unnamed_addr constant [1 x i8] zeroinitializer, align 1
@.str.5 = private unnamed_addr constant [2 x i8] c":\00", align 1
@.str.7 = private unnamed_addr constant [34 x i8] c"Out of memory adding file to list\00", align 1
@.str.8 = private unnamed_addr constant [29 x i8] c"__ignore_wrong_module_name__\00", align 1
@.str.9 = private unnamed_addr constant [27 x i8] c"Undefined option: `%s%s%s'\00", align 1
@.str.10 = private unnamed_addr constant [2 x i8] c"1\00", align 1

; Function Attrs: nounwind uwtable
define internal ptr @parse_option(ptr noundef %0, ptr noundef %1, ptr noundef %2, ptr noundef %3) #0 {
  %5 = alloca ptr, align 8
  %6 = alloca ptr, align 8
  %7 = alloca ptr, align 8
  %8 = alloca ptr, align 8
  %9 = alloca ptr, align 8
  %10 = alloca ptr, align 8
  %11 = alloca ptr, align 8
  %12 = alloca ptr, align 8
  %13 = alloca ptr, align 8
  %14 = alloca ptr, align 8
  %15 = alloca i32, align 4
  store ptr %0, ptr %6, align 8, !tbaa !17
  store ptr %1, ptr %7, align 8, !tbaa !17
  store ptr %2, ptr %8, align 8, !tbaa !17
  store ptr %3, ptr %9, align 8, !tbaa !17
  call void @llvm.lifetime.start.p0(i64 8, ptr %10) #5
  call void @llvm.lifetime.start.p0(i64 8, ptr %11) #5
  call void @llvm.lifetime.start.p0(i64 8, ptr %12) #5
  call void @llvm.lifetime.start.p0(i64 8, ptr %13) #5
  call void @llvm.lifetime.start.p0(i64 8, ptr %14) #5
  store ptr null, ptr %10, align 8, !tbaa !9
  store ptr null, ptr %11, align 8, !tbaa !9
  %16 = load ptr, ptr %6, align 8, !tbaa !17
  %17 = load ptr, ptr %16, align 8, !tbaa !9
  store ptr %17, ptr %12, align 8, !tbaa !9
  store ptr @.str.10, ptr %13, align 8, !tbaa !9
  %18 = load ptr, ptr %12, align 8, !tbaa !9
  %19 = call ptr @strchr(ptr noundef %18, i32 noundef 44) #6
  store ptr %19, ptr %14, align 8, !tbaa !9
  %20 = load ptr, ptr %14, align 8, !tbaa !9
  %21 = icmp ne ptr %20, null
  br i1 %21, label %22, label %26

22:                                               ; preds = %4
  %23 = load ptr, ptr %14, align 8, !tbaa !9
  store i8 0, ptr %23, align 1, !tbaa !14
  %24 = load ptr, ptr %14, align 8, !tbaa !9
  %25 = getelementptr inbounds i8, ptr %24, i64 1
  store ptr %25, ptr %10, align 8, !tbaa !9
  br label %26

26:                                               ; preds = %22, %4
  %27 = load ptr, ptr %12, align 8, !tbaa !9
  %28 = call i64 @strlen(ptr noundef %27) #6
  %29 = icmp eq i64 0, %28
  br i1 %29, label %30, label %37

30:                                               ; preds = %26
  %31 = load ptr, ptr %10, align 8, !tbaa !9
  %32 = load ptr, ptr %6, align 8, !tbaa !17
  store ptr %31, ptr %32, align 8, !tbaa !9
  %33 = load ptr, ptr %7, align 8, !tbaa !17
  store ptr null, ptr %33, align 8, !tbaa !9
  %34 = load ptr, ptr %8, align 8, !tbaa !17
  store ptr null, ptr %34, align 8, !tbaa !9
  %35 = load ptr, ptr %9, align 8, !tbaa !17
  store ptr null, ptr %35, align 8, !tbaa !9
  %36 = load ptr, ptr %10, align 8, !tbaa !9
  store ptr %36, ptr %5, align 8
  store i32 1, ptr %15, align 4
  br label %76

37:                                               ; preds = %26
  %38 = load ptr, ptr %12, align 8, !tbaa !9
  %39 = call ptr @strchr(ptr noundef %38, i32 noundef 58) #6
  store ptr %39, ptr %14, align 8, !tbaa !9
  %40 = load ptr, ptr %14, align 8, !tbaa !9
  %41 = icmp ne ptr %40, null
  br i1 %41, label %42, label %47

42:                                               ; preds = %37
  %43 = load ptr, ptr %14, align 8, !tbaa !9
  store i8 0, ptr %43, align 1, !tbaa !14
  %44 = load ptr, ptr %12, align 8, !tbaa !9
  store ptr %44, ptr %11, align 8, !tbaa !9
  %45 = load ptr, ptr %14, align 8, !tbaa !9
  %46 = getelementptr inbounds nuw i8, ptr %45, i32 1
  store ptr %46, ptr %14, align 8, !tbaa !9
  store ptr %46, ptr %12, align 8, !tbaa !9
  br label %47

47:                                               ; preds = %42, %37
  %48 = load ptr, ptr %12, align 8, !tbaa !9
  %49 = call ptr @strchr(ptr noundef %48, i32 noundef 61) #6
  store ptr %49, ptr %14, align 8, !tbaa !9
  %50 = load ptr, ptr %14, align 8, !tbaa !9
  %51 = icmp ne ptr %50, null
  br i1 %51, label %52, label %56

52:                                               ; preds = %47
  %53 = load ptr, ptr %14, align 8, !tbaa !9
  store i8 0, ptr %53, align 1, !tbaa !14
  %54 = load ptr, ptr %14, align 8, !tbaa !9
  %55 = getelementptr inbounds nuw i8, ptr %54, i32 1
  store ptr %55, ptr %14, align 8, !tbaa !9
  store ptr %55, ptr %13, align 8, !tbaa !9
  br label %66

56:                                               ; preds = %47
  %57 = load ptr, ptr %12, align 8, !tbaa !9
  %58 = getelementptr inbounds i8, ptr %57, i64 0
  %59 = load i8, ptr %58, align 1, !tbaa !14
  %60 = sext i8 %59 to i32
  %61 = icmp eq i32 %60, 33
  br i1 %61, label %62, label %65

62:                                               ; preds = %56
  %63 = load ptr, ptr %12, align 8, !tbaa !9
  %64 = getelementptr inbounds nuw i8, ptr %63, i32 1
  store ptr %64, ptr %12, align 8, !tbaa !9
  store ptr null, ptr %13, align 8, !tbaa !9
  br label %65

65:                                               ; preds = %62, %56
  br label %66

66:                                               ; preds = %65, %52
  %67 = load ptr, ptr %10, align 8, !tbaa !9
  %68 = load ptr, ptr %6, align 8, !tbaa !17
  store ptr %67, ptr %68, align 8, !tbaa !9
  %69 = load ptr, ptr %11, align 8, !tbaa !9
  %70 = load ptr, ptr %7, align 8, !tbaa !17
  store ptr %69, ptr %70, align 8, !tbaa !9
  %71 = load ptr, ptr %12, align 8, !tbaa !9
  %72 = load ptr, ptr %8, align 8, !tbaa !17
  store ptr %71, ptr %72, align 8, !tbaa !9
  %73 = load ptr, ptr %13, align 8, !tbaa !9
  %74 = load ptr, ptr %9, align 8, !tbaa !17
  store ptr %73, ptr %74, align 8, !tbaa !9
  %75 = load ptr, ptr %10, align 8, !tbaa !9
  store ptr %75, ptr %5, align 8
  store i32 1, ptr %15, align 4
  br label %76

76:                                               ; preds = %66, %30
  call void @llvm.lifetime.end.p0(i64 8, ptr %14) #5
  call void @llvm.lifetime.end.p0(i64 8, ptr %13) #5
  call void @llvm.lifetime.end.p0(i64 8, ptr %12) #5
  call void @llvm.lifetime.end.p0(i64 8, ptr %11) #5
  call void @llvm.lifetime.end.p0(i64 8, ptr %10) #5
  %77 = load ptr, ptr %5, align 8
  ret ptr %77
}

; Function Attrs: nounwind uwtable
define dso_local i32 @_archive_set_options(ptr noundef %0, ptr noundef %1, i32 noundef %2, ptr noundef %3, ptr noundef %4) #0 {
  %6 = alloca i32, align 4
  %7 = alloca ptr, align 8
  %8 = alloca ptr, align 8
  %9 = alloca i32, align 4
  %10 = alloca ptr, align 8
  %11 = alloca ptr, align 8
  %12 = alloca i32, align 4
  %13 = alloca i32, align 4
  %14 = alloca i32, align 4
  %15 = alloca i32, align 4
  %16 = alloca ptr, align 8
  %17 = alloca ptr, align 8
  %18 = alloca ptr, align 8
  %19 = alloca ptr, align 8
  %20 = alloca ptr, align 8
  %21 = alloca i32, align 4
  %22 = alloca i32, align 4
  store ptr %0, ptr %7, align 8, !tbaa !4
  store ptr %1, ptr %8, align 8, !tbaa !9
  store i32 %2, ptr %9, align 4, !tbaa !11
  store ptr %3, ptr %10, align 8, !tbaa !9
  store ptr %4, ptr %11, align 8, !tbaa !13
  call void @llvm.lifetime.start.p0(i64 4, ptr %12) #5
  store i32 1, ptr %12, align 4, !tbaa !11
  call void @llvm.lifetime.start.p0(i64 4, ptr %13) #5
  store i32 0, ptr %13, align 4, !tbaa !11
  call void @llvm.lifetime.start.p0(i64 4, ptr %14) #5
  store i32 0, ptr %14, align 4, !tbaa !11
  call void @llvm.lifetime.start.p0(i64 4, ptr %15) #5
  call void @llvm.lifetime.start.p0(i64 8, ptr %16) #5
  call void @llvm.lifetime.start.p0(i64 8, ptr %17) #5
  call void @llvm.lifetime.start.p0(i64 8, ptr %18) #5
  call void @llvm.lifetime.start.p0(i64 8, ptr %19) #5
  call void @llvm.lifetime.start.p0(i64 8, ptr %20) #5
  br label %23

23:                                               ; preds = %5
  call void @llvm.lifetime.start.p0(i64 4, ptr %21) #5
  %24 = load ptr, ptr %7, align 8, !tbaa !4
  %25 = load i32, ptr %9, align 4, !tbaa !11
  %26 = load ptr, ptr %10, align 8, !tbaa !9
  %27 = call i32 @__archive_check_magic(ptr noundef %24, i32 noundef %25, i32 noundef 1, ptr noundef %26)
  store i32 %27, ptr %21, align 4, !tbaa !11
  %28 = load i32, ptr %21, align 4, !tbaa !11
  %29 = icmp eq i32 %28, -30
  br i1 %29, label %30, label %31

30:                                               ; preds = %23
  store i32 -30, ptr %6, align 4
  store i32 1, ptr %22, align 4
  br label %32

31:                                               ; preds = %23
  store i32 0, ptr %22, align 4
  br label %32

32:                                               ; preds = %31, %30
  call void @llvm.lifetime.end.p0(i64 4, ptr %21) #5
  %33 = load i32, ptr %22, align 4
  switch i32 %33, label %137 [
    i32 0, label %34
  ]

34:                                               ; preds = %32
  br label %35

35:                                               ; preds = %34
  br label %36

36:                                               ; preds = %35
  %37 = load ptr, ptr %8, align 8, !tbaa !9
  %38 = icmp eq ptr %37, null
  br i1 %38, label %45, label %39

39:                                               ; preds = %36
  %40 = load ptr, ptr %8, align 8, !tbaa !9
  %41 = getelementptr inbounds i8, ptr %40, i64 0
  %42 = load i8, ptr %41, align 1, !tbaa !14
  %43 = sext i8 %42 to i32
  %44 = icmp eq i32 %43, 0
  br i1 %44, label %45, label %46

45:                                               ; preds = %39, %36
  store i32 0, ptr %6, align 4
  store i32 1, ptr %22, align 4
  br label %137

46:                                               ; preds = %39
  %47 = load ptr, ptr %8, align 8, !tbaa !9
  %48 = call noalias ptr @strdup(ptr noundef %47) #5
  store ptr %48, ptr %16, align 8, !tbaa !9
  %49 = icmp eq ptr %48, null
  br i1 %49, label %50, label %52

50:                                               ; preds = %46
  %51 = load ptr, ptr %7, align 8, !tbaa !4
  call void (ptr, i32, ptr, ...) @archive_set_error(ptr noundef %51, i32 noundef 12, ptr noundef @.str.7)
  store i32 -30, ptr %6, align 4
  store i32 1, ptr %22, align 4
  br label %137

52:                                               ; preds = %46
  %53 = load ptr, ptr %16, align 8, !tbaa !9
  store ptr %53, ptr %17, align 8, !tbaa !9
  br label %54

54:                                               ; preds = %123, %52
  store ptr null, ptr %20, align 8, !tbaa !9
  store ptr null, ptr %19, align 8, !tbaa !9
  store ptr null, ptr %18, align 8, !tbaa !9
  %55 = call ptr @parse_option(ptr noundef %17, ptr noundef %18, ptr noundef %19, ptr noundef %20)
  %56 = load ptr, ptr %18, align 8, !tbaa !9
  %57 = icmp eq ptr %56, null
  br i1 %57, label %58, label %70

58:                                               ; preds = %54
  %59 = load ptr, ptr %19, align 8, !tbaa !9
  %60 = icmp ne ptr %59, null
  br i1 %60, label %61, label %70

61:                                               ; preds = %58
  %62 = load ptr, ptr %19, align 8, !tbaa !9
  %63 = call i32 @strcmp(ptr noundef @.str.8, ptr noundef %62) #6
  %64 = icmp eq i32 %63, 0
  br i1 %64, label %65, label %70

65:                                               ; preds = %61
  %66 = load ptr, ptr %20, align 8, !tbaa !9
  %67 = icmp ne ptr %66, null
  br i1 %67, label %68, label %69

68:                                               ; preds = %65
  store i32 1, ptr %14, align 4, !tbaa !11
  store i32 1, ptr %13, align 4, !tbaa !11
  br label %69

69:                                               ; preds = %68, %65
  br label %123

70:                                               ; preds = %61, %58, %54
  %71 = load ptr, ptr %11, align 8, !tbaa !13
  %72 = load ptr, ptr %7, align 8, !tbaa !4
  %73 = load ptr, ptr %18, align 8, !tbaa !9
  %74 = load ptr, ptr %19, align 8, !tbaa !9
  %75 = load ptr, ptr %20, align 8, !tbaa !9
  %76 = call i32 %71(ptr noundef %72, ptr noundef %73, ptr noundef %74, ptr noundef %75)
  store i32 %76, ptr %15, align 4, !tbaa !11
  %77 = load i32, ptr %15, align 4, !tbaa !11
  %78 = icmp eq i32 %77, -30
  br i1 %78, label %79, label %81

79:                                               ; preds = %70
  %80 = load ptr, ptr %16, align 8, !tbaa !9
  call void @free(ptr noundef %80) #5
  store i32 -30, ptr %6, align 4
  store i32 1, ptr %22, align 4
  br label %137

81:                                               ; preds = %70
  %82 = load i32, ptr %15, align 4, !tbaa !11
  %83 = icmp eq i32 %82, -25
  br i1 %83, label %84, label %89

84:                                               ; preds = %81
  %85 = load ptr, ptr %18, align 8, !tbaa !9
  %86 = icmp ne ptr %85, null
  br i1 %86, label %87, label %89

87:                                               ; preds = %84
  %88 = load ptr, ptr %16, align 8, !tbaa !9
  call void @free(ptr noundef %88) #5
  store i32 -25, ptr %6, align 4
  store i32 1, ptr %22, align 4
  br label %137

89:                                               ; preds = %84, %81
  %90 = load i32, ptr %15, align 4, !tbaa !11
  %91 = icmp eq i32 %90, -21
  br i1 %91, label %92, label %100

92:                                               ; preds = %89
  %93 = load i32, ptr %14, align 4, !tbaa !11
  %94 = icmp ne i32 %93, 0
  br i1 %94, label %95, label %96

95:                                               ; preds = %92
  br label %123

96:                                               ; preds = %92
  %97 = load ptr, ptr %7, align 8, !tbaa !4
  %98 = load ptr, ptr %18, align 8, !tbaa !9
  call void (ptr, i32, ptr, ...) @archive_set_error(ptr noundef %97, i32 noundef -1, ptr noundef @.str.1, ptr noundef %98)
  %99 = load ptr, ptr %16, align 8, !tbaa !9
  call void @free(ptr noundef %99) #5
  store i32 -25, ptr %6, align 4
  store i32 1, ptr %22, align 4
  br label %137

100:                                              ; preds = %89
  %101 = load i32, ptr %15, align 4, !tbaa !11
  %102 = icmp eq i32 %101, -20
  br i1 %102, label %103, label %117

103:                                              ; preds = %100
  %104 = load ptr, ptr %7, align 8, !tbaa !4
  %105 = load ptr, ptr %18, align 8, !tbaa !9
  %106 = icmp ne ptr %105, null
  br i1 %106, label %107, label %109

107:                                              ; preds = %103
  %108 = load ptr, ptr %18, align 8, !tbaa !9
  br label %110

109:                                              ; preds = %103
  br label %110

110:                                              ; preds = %109, %107
  %111 = phi ptr [ %108, %107 ], [ @.str.3, %109 ]
  %112 = load ptr, ptr %18, align 8, !tbaa !9
  %113 = icmp ne ptr %112, null
  %114 = select i1 %113, ptr @.str.5, ptr @.str.3
  %115 = load ptr, ptr %19, align 8, !tbaa !9
  call void (ptr, i32, ptr, ...) @archive_set_error(ptr noundef %104, i32 noundef -1, ptr noundef @.str.9, ptr noundef %111, ptr noundef %114, ptr noundef %115)
  %116 = load ptr, ptr %16, align 8, !tbaa !9
  call void @free(ptr noundef %116) #5
  store i32 -25, ptr %6, align 4
  store i32 1, ptr %22, align 4
  br label %137

117:                                              ; preds = %100
  %118 = load i32, ptr %15, align 4, !tbaa !11
  %119 = icmp eq i32 %118, 0
  br i1 %119, label %120, label %121

120:                                              ; preds = %117
  store i32 1, ptr %13, align 4, !tbaa !11
  br label %122

121:                                              ; preds = %117
  store i32 0, ptr %12, align 4, !tbaa !11
  br label %122

122:                                              ; preds = %121, %120
  br label %123

123:                                              ; preds = %122, %95, %69
  %124 = load ptr, ptr %17, align 8, !tbaa !9
  %125 = icmp ne ptr %124, null
  br i1 %125, label %54, label %126, !llvm.loop !15

126:                                              ; preds = %123
  %127 = load ptr, ptr %16, align 8, !tbaa !9
  call void @free(ptr noundef %127) #5
  %128 = load i32, ptr %12, align 4, !tbaa !11
  %129 = icmp ne i32 %128, 0
  br i1 %129, label %130, label %131

130:                                              ; preds = %126
  br label %135

131:                                              ; preds = %126
  %132 = load i32, ptr %13, align 4, !tbaa !11
  %133 = icmp ne i32 %132, 0
  %134 = select i1 %133, i32 -20, i32 -25
  br label %135

135:                                              ; preds = %131, %130
  %136 = phi i32 [ 0, %130 ], [ %134, %131 ]
  store i32 %136, ptr %6, align 4
  store i32 1, ptr %22, align 4
  br label %137

137:                                              ; preds = %135, %110, %96, %87, %79, %50, %45, %32
  call void @llvm.lifetime.end.p0(i64 8, ptr %20) #5
  call void @llvm.lifetime.end.p0(i64 8, ptr %19) #5
  call void @llvm.lifetime.end.p0(i64 8, ptr %18) #5
  call void @llvm.lifetime.end.p0(i64 8, ptr %17) #5
  call void @llvm.lifetime.end.p0(i64 8, ptr %16) #5
  call void @llvm.lifetime.end.p0(i64 4, ptr %15) #5
  call void @llvm.lifetime.end.p0(i64 4, ptr %14) #5
  call void @llvm.lifetime.end.p0(i64 4, ptr %13) #5
  call void @llvm.lifetime.end.p0(i64 4, ptr %12) #5
  %138 = load i32, ptr %6, align 4
  ret i32 %138
}