; Function Attrs: nounwind uwtable
define dso_local range(i32 -30, 1) i32 @_archive_set_options(ptr noundef %0, ptr noundef readonly %1, i32 noundef %2, ptr noundef %3, ptr noundef readonly captures(none) %4) local_unnamed_addr #0 {
  %6 = tail call i32 @__archive_check_magic(ptr noundef %0, i32 noundef %2, i32 noundef 1, ptr noundef %3) #6
  %.not = icmp eq i32 %6, -30
  br i1 %.not, label %55, label %7

7:                                                ; preds = %5
  %8 = icmp eq ptr %1, null
  br i1 %8, label %55, label %9

9:                                                ; preds = %7
  %10 = load i8, ptr %1, align 1, !tbaa !4
  %11 = icmp eq i8 %10, 0
  br i1 %11, label %55, label %12

12:                                               ; preds = %9
  %13 = tail call noalias ptr @strdup(ptr noundef nonnull %1) #6
  %14 = icmp eq ptr %13, null
  br i1 %14, label %15, label %.preheader

15:                                               ; preds = %12
  tail call void (ptr, i32, ptr, ...) @archive_set_error(ptr noundef %0, i32 noundef 12, ptr noundef nonnull @.str.7) #6
  br label %55

.preheader:                                       ; preds = %12, %51
  %.0 = phi ptr [ %.035.i, %51 ], [ %13, %12 ]
  %.035 = phi i32 [ %.136, %51 ], [ 0, %12 ]
  %.033 = phi i32 [ %.134, %51 ], [ 0, %12 ]
  %.031 = phi i32 [ %.132, %51 ], [ 1, %12 ]
  %16 = tail call ptr @strchr(ptr noundef nonnull dereferenceable(1) %.0, i32 noundef 44) #7
  %.not.i = icmp eq ptr %16, null
  br i1 %.not.i, label %19, label %17

17:                                               ; preds = %.preheader
  store i8 0, ptr %16, align 1, !tbaa !4
  %18 = getelementptr inbounds nuw i8, ptr %16, i64 1
  br label %19

19:                                               ; preds = %17, %.preheader
  %.035.i = phi ptr [ %18, %17 ], [ null, %.preheader ]
  %char0.i = load i8, ptr %.0, align 1
  %20 = icmp eq i8 %char0.i, 0
  br i1 %20, label %parse_option.exit.thread, label %21

21:                                               ; preds = %19
  %22 = tail call ptr @strchr(ptr noundef nonnull dereferenceable(1) %.0, i32 noundef 58) #7
  %.not40.i = icmp eq ptr %22, null
  br i1 %.not40.i, label %25, label %23

23:                                               ; preds = %21
  store i8 0, ptr %22, align 1, !tbaa !4
  %24 = getelementptr inbounds nuw i8, ptr %22, i64 1
  br label %25

25:                                               ; preds = %23, %21
  %.034.i = phi ptr [ %.0, %23 ], [ null, %21 ]
  %.033.i = phi ptr [ %24, %23 ], [ %.0, %21 ]
  %26 = tail call ptr @strchr(ptr noundef nonnull dereferenceable(1) %.033.i, i32 noundef 61) #7
  %.not41.i = icmp eq ptr %26, null
  br i1 %.not41.i, label %29, label %27

27:                                               ; preds = %25
  store i8 0, ptr %26, align 1, !tbaa !4
  %28 = getelementptr inbounds nuw i8, ptr %26, i64 1
  br label %parse_option.exit

29:                                               ; preds = %25
  %30 = load i8, ptr %.033.i, align 1, !tbaa !4
  %31 = icmp eq i8 %30, 33
  %spec.select.idx.i = zext i1 %31 to i64
  %spec.select.i = getelementptr inbounds nuw i8, ptr %.033.i, i64 %spec.select.idx.i
  %spec.select44.i = select i1 %31, ptr null, ptr @.str.10
  br label %parse_option.exit

parse_option.exit:                                ; preds = %27, %29
  %storemerge42.i = phi ptr [ %spec.select.i, %29 ], [ %.033.i, %27 ]
  %storemerge.i = phi ptr [ %spec.select44.i, %29 ], [ %28, %27 ]
  %32 = icmp eq ptr %.034.i, null
  br i1 %32, label %33, label %parse_option.exit.thread

33:                                               ; preds = %parse_option.exit
  %34 = tail call i32 @strcmp(ptr noundef nonnull dereferenceable(29) @.str.8, ptr noundef nonnull dereferenceable(1) %storemerge42.i) #7
  %35 = icmp eq i32 %34, 0
  br i1 %35, label %36, label %parse_option.exit.thread

36:                                               ; preds = %33
  %.not42 = icmp eq ptr %storemerge.i, null
  %spec.select = select i1 %.not42, i32 %.035, i32 1
  %spec.select46 = select i1 %.not42, i32 %.033, i32 1
  br label %51

parse_option.exit.thread:                         ; preds = %19, %33, %parse_option.exit
  %storemerge.i62 = phi ptr [ %storemerge.i, %33 ], [ %storemerge.i, %parse_option.exit ], [ null, %19 ]
  %storemerge42.i61 = phi ptr [ %storemerge42.i, %33 ], [ %storemerge42.i, %parse_option.exit ], [ null, %19 ]
  %storemerge43.i60 = phi ptr [ null, %33 ], [ %.034.i, %parse_option.exit ], [ null, %19 ]
  %37 = tail call i32 %4(ptr noundef %0, ptr noundef %storemerge43.i60, ptr noundef %storemerge42.i61, ptr noundef %storemerge.i62) #6
  %38 = icmp eq i32 %37, -30
  br i1 %38, label %39, label %40

39:                                               ; preds = %parse_option.exit.thread
  tail call void @free(ptr noundef %13) #6
  br label %55

40:                                               ; preds = %parse_option.exit.thread
  %41 = icmp eq i32 %37, -25
  %42 = icmp ne ptr %storemerge43.i60, null
  %or.cond3 = and i1 %42, %41
  br i1 %or.cond3, label %43, label %44

43:                                               ; preds = %40
  tail call void @free(ptr noundef %13) #6
  br label %55

44:                                               ; preds = %40
  switch i32 %37, label %50 [
    i32 -21, label %45
    i32 -20, label %47
    i32 0, label %51
  ]

45:                                               ; preds = %44
  %.not41 = icmp eq i32 %.035, 0
  br i1 %.not41, label %46, label %51

46:                                               ; preds = %45
  tail call void (ptr, i32, ptr, ...) @archive_set_error(ptr noundef %0, i32 noundef -1, ptr noundef nonnull @.str.1, ptr noundef %storemerge43.i60) #6
  tail call void @free(ptr noundef %13) #6
  br label %55

47:                                               ; preds = %44
  %48 = select i1 %42, ptr %storemerge43.i60, ptr @.str.3
  %49 = select i1 %42, ptr @.str.5, ptr @.str.3
  tail call void (ptr, i32, ptr, ...) @archive_set_error(ptr noundef %0, i32 noundef -1, ptr noundef nonnull @.str.9, ptr noundef nonnull %48, ptr noundef nonnull %49, ptr noundef %storemerge42.i61) #6
  tail call void @free(ptr noundef %13) #6
  br label %55

50:                                               ; preds = %44
  br label %51

51:                                               ; preds = %36, %44, %50, %45
  %.136 = phi i32 [ 1, %45 ], [ %.035, %50 ], [ %spec.select, %36 ], [ %.035, %44 ]
  %.134 = phi i32 [ %.033, %45 ], [ %.033, %50 ], [ %spec.select46, %36 ], [ 1, %44 ]
  %.132 = phi i32 [ %.031, %45 ], [ 0, %50 ], [ %.031, %36 ], [ %.031, %44 ]
  %.not43 = icmp eq ptr %.035.i, null
  br i1 %.not43, label %52, label %.preheader, !llvm.loop !7

52:                                               ; preds = %51
  tail call void @free(ptr noundef %13) #6
  %.not44 = icmp eq i32 %.132, 0
  %.not45 = icmp eq i32 %.134, 0
  %53 = select i1 %.not45, i32 -25, i32 -20
  %54 = select i1 %.not44, i32 %53, i32 0
  br label %55

55:                                               ; preds = %7, %9, %5, %52, %47, %46, %43, %39, %15
  %.1 = phi i32 [ -30, %15 ], [ %54, %52 ], [ -30, %39 ], [ -25, %43 ], [ -25, %46 ], [ -25, %47 ], [ -30, %5 ], [ 0, %9 ], [ 0, %7 ]
  ret i32 %.1
}